; ModuleID = '27/45.c'
source_filename = "27/45.c"
target datalayout = "e-m:e-p270:32:32-p271:32:32-p272:64:64-i64:64-f80:128-n8:16:32:64-S128"
target triple = "x86_64-pc-linux-gnu"

@.str = private unnamed_addr constant [3 x i8] c"%d\00", align 1
@.str.1 = private unnamed_addr constant [10 x i8] c"%lf%lf%lf\00", align 1
@.str.2 = private unnamed_addr constant [13 x i8] c"x1=x2=%.5lf\0A\00", align 1
@.str.3 = private unnamed_addr constant [19 x i8] c"x1=%.5lf;x2=%.5lf\0A\00", align 1
@.str.4 = private unnamed_addr constant [33 x i8] c"x1=%.5lf+%.5lfi;x2=%.5lf-%.5lfi\0A\00", align 1

; Function Attrs: noinline nounwind uwtable
define dso_local i32 @main() #0 {
  %1 = alloca i32, align 4
  %2 = alloca i32, align 4
  %3 = alloca i32, align 4
  %4 = alloca double, align 8
  %5 = alloca double, align 8
  %6 = alloca double, align 8
  %7 = alloca [100 x double], align 16
  %8 = alloca [100 x double], align 16
  %9 = alloca [100 x double], align 16
  %10 = alloca [100 x double], align 16
  %11 = alloca [100 x double], align 16
  %12 = alloca [100 x double], align 16
  store i32 0, i32* %1, align 4
  %13 = call i32 (i8*, ...) @__isoc99_scanf(i8* getelementptr inbounds ([3 x i8], [3 x i8]* @.str, i64 0, i64 0), i32* %2)
  store i32 0, i32* %3, align 4
  br label %14

14:                                               ; preds = %29, %0
  %15 = load i32, i32* %3, align 4
  %16 = load i32, i32* %2, align 4
  %17 = icmp slt i32 %15, %16
  br i1 %17, label %18, label %32

18:                                               ; preds = %14
  %19 = load i32, i32* %3, align 4
  %20 = sext i32 %19 to i64
  %21 = getelementptr inbounds [100 x double], [100 x double]* %7, i64 0, i64 %20
  %22 = load i32, i32* %3, align 4
  %23 = sext i32 %22 to i64
  %24 = getelementptr inbounds [100 x double], [100 x double]* %8, i64 0, i64 %23
  %25 = load i32, i32* %3, align 4
  %26 = sext i32 %25 to i64
  %27 = getelementptr inbounds [100 x double], [100 x double]* %9, i64 0, i64 %26
  %28 = call i32 (i8*, ...) @__isoc99_scanf(i8* getelementptr inbounds ([10 x i8], [10 x i8]* @.str.1, i64 0, i64 0), double* %21, double* %24, double* %27)
  br label %29

29:                                               ; preds = %18
  %30 = load i32, i32* %3, align 4
  %31 = add nsw i32 %30, 1
  store i32 %31, i32* %3, align 4
  br label %14

32:                                               ; preds = %14
  store i32 0, i32* %3, align 4
  br label %33

33:                                               ; preds = %233, %32
  %34 = load i32, i32* %3, align 4
  %35 = load i32, i32* %2, align 4
  %36 = icmp slt i32 %34, %35
  br i1 %36, label %37, label %236

37:                                               ; preds = %33
  %38 = load i32, i32* %3, align 4
  %39 = sext i32 %38 to i64
  %40 = getelementptr inbounds [100 x double], [100 x double]* %8, i64 0, i64 %39
  %41 = load double, double* %40, align 8
  %42 = fneg double %41
  %43 = load i32, i32* %3, align 4
  %44 = sext i32 %43 to i64
  %45 = getelementptr inbounds [100 x double], [100 x double]* %7, i64 0, i64 %44
  %46 = load double, double* %45, align 8
  %47 = fmul double 2.000000e+00, %46
  %48 = fdiv double %42, %47
  store double %48, double* %6, align 8
  %49 = load double, double* %6, align 8
  %50 = fcmp oeq double %49, -0.000000e+00
  br i1 %50, label %51, label %52

51:                                               ; preds = %37
  store double 0.000000e+00, double* %6, align 8
  br label %52

52:                                               ; preds = %51, %37
  %53 = load i32, i32* %3, align 4
  %54 = sext i32 %53 to i64
  %55 = getelementptr inbounds [100 x double], [100 x double]* %8, i64 0, i64 %54
  %56 = load double, double* %55, align 8
  %57 = load i32, i32* %3, align 4
  %58 = sext i32 %57 to i64
  %59 = getelementptr inbounds [100 x double], [100 x double]* %8, i64 0, i64 %58
  %60 = load double, double* %59, align 8
  %61 = fmul double %56, %60
  %62 = load i32, i32* %3, align 4
  %63 = sext i32 %62 to i64
  %64 = getelementptr inbounds [100 x double], [100 x double]* %7, i64 0, i64 %63
  %65 = load double, double* %64, align 8
  %66 = fmul double 4.000000e+00, %65
  %67 = load i32, i32* %3, align 4
  %68 = sext i32 %67 to i64
  %69 = getelementptr inbounds [100 x double], [100 x double]* %9, i64 0, i64 %68
  %70 = load double, double* %69, align 8
  %71 = fmul double %66, %70
  %72 = fsub double %61, %71
  %73 = load i32, i32* %3, align 4
  %74 = sext i32 %73 to i64
  %75 = getelementptr inbounds [100 x double], [100 x double]* %12, i64 0, i64 %74
  store double %72, double* %75, align 8
  %76 = load i32, i32* %3, align 4
  %77 = sext i32 %76 to i64
  %78 = getelementptr inbounds [100 x double], [100 x double]* %12, i64 0, i64 %77
  %79 = load double, double* %78, align 8
  %80 = fcmp oeq double %79, 0.000000e+00
  br i1 %80, label %81, label %104

81:                                               ; preds = %52
  %82 = load i32, i32* %3, align 4
  %83 = sext i32 %82 to i64
  %84 = getelementptr inbounds [100 x double], [100 x double]* %8, i64 0, i64 %83
  %85 = load double, double* %84, align 8
  %86 = fneg double %85
  %87 = load i32, i32* %3, align 4
  %88 = sext i32 %87 to i64
  %89 = getelementptr inbounds [100 x double], [100 x double]* %7, i64 0, i64 %88
  %90 = load double, double* %89, align 8
  %91 = fmul double 2.000000e+00, %90
  %92 = fdiv double %86, %91
  %93 = load i32, i32* %3, align 4
  %94 = sext i32 %93 to i64
  %95 = getelementptr inbounds [100 x double], [100 x double]* %11, i64 0, i64 %94
  store double %92, double* %95, align 8
  %96 = load i32, i32* %3, align 4
  %97 = sext i32 %96 to i64
  %98 = getelementptr inbounds [100 x double], [100 x double]* %10, i64 0, i64 %97
  store double %92, double* %98, align 8
  %99 = load i32, i32* %3, align 4
  %100 = sext i32 %99 to i64
  %101 = getelementptr inbounds [100 x double], [100 x double]* %10, i64 0, i64 %100
  %102 = load double, double* %101, align 8
  %103 = call i32 (i8*, ...) @printf(i8* getelementptr inbounds ([13 x i8], [13 x i8]* @.str.2, i64 0, i64 0), double %102)
  br label %104

104:                                              ; preds = %81, %52
  %105 = load i32, i32* %3, align 4
  %106 = sext i32 %105 to i64
  %107 = getelementptr inbounds [100 x double], [100 x double]* %12, i64 0, i64 %106
  %108 = load double, double* %107, align 8
  %109 = fcmp ogt double %108, 0.000000e+00
  br i1 %109, label %110, label %192

110:                                              ; preds = %104
  %111 = load i32, i32* %3, align 4
  %112 = sext i32 %111 to i64
  %113 = getelementptr inbounds [100 x double], [100 x double]* %8, i64 0, i64 %112
  %114 = load double, double* %113, align 8
  %115 = fneg double %114
  %116 = load i32, i32* %3, align 4
  %117 = sext i32 %116 to i64
  %118 = getelementptr inbounds [100 x double], [100 x double]* %8, i64 0, i64 %117
  %119 = load double, double* %118, align 8
  %120 = load i32, i32* %3, align 4
  %121 = sext i32 %120 to i64
  %122 = getelementptr inbounds [100 x double], [100 x double]* %8, i64 0, i64 %121
  %123 = load double, double* %122, align 8
  %124 = fmul double %119, %123
  %125 = load i32, i32* %3, align 4
  %126 = sext i32 %125 to i64
  %127 = getelementptr inbounds [100 x double], [100 x double]* %7, i64 0, i64 %126
  %128 = load double, double* %127, align 8
  %129 = fmul double 4.000000e+00, %128
  %130 = load i32, i32* %3, align 4
  %131 = sext i32 %130 to i64
  %132 = getelementptr inbounds [100 x double], [100 x double]* %9, i64 0, i64 %131
  %133 = load double, double* %132, align 8
  %134 = fmul double %129, %133
  %135 = fsub double %124, %134
  %136 = call double @sqrt(double %135) #3
  %137 = fadd double %115, %136
  %138 = load i32, i32* %3, align 4
  %139 = sext i32 %138 to i64
  %140 = getelementptr inbounds [100 x double], [100 x double]* %7, i64 0, i64 %139
  %141 = load double, double* %140, align 8
  %142 = fmul double 2.000000e+00, %141
  %143 = fdiv double %137, %142
  %144 = load i32, i32* %3, align 4
  %145 = sext i32 %144 to i64
  %146 = getelementptr inbounds [100 x double], [100 x double]* %10, i64 0, i64 %145
  store double %143, double* %146, align 8
  %147 = load i32, i32* %3, align 4
  %148 = sext i32 %147 to i64
  %149 = getelementptr inbounds [100 x double], [100 x double]* %8, i64 0, i64 %148
  %150 = load double, double* %149, align 8
  %151 = fneg double %150
  %152 = load i32, i32* %3, align 4
  %153 = sext i32 %152 to i64
  %154 = getelementptr inbounds [100 x double], [100 x double]* %8, i64 0, i64 %153
  %155 = load double, double* %154, align 8
  %156 = load i32, i32* %3, align 4
  %157 = sext i32 %156 to i64
  %158 = getelementptr inbounds [100 x double], [100 x double]* %8, i64 0, i64 %157
  %159 = load double, double* %158, align 8
  %160 = fmul double %155, %159
  %161 = load i32, i32* %3, align 4
  %162 = sext i32 %161 to i64
  %163 = getelementptr inbounds [100 x double], [100 x double]* %7, i64 0, i64 %162
  %164 = load double, double* %163, align 8
  %165 = fmul double 4.000000e+00, %164
  %166 = load i32, i32* %3, align 4
  %167 = sext i32 %166 to i64
  %168 = getelementptr inbounds [100 x double], [100 x double]* %9, i64 0, i64 %167
  %169 = load double, double* %168, align 8
  %170 = fmul double %165, %169
  %171 = fsub double %160, %170
  %172 = call double @sqrt(double %171) #3
  %173 = fsub double %151, %172
  %174 = load i32, i32* %3, align 4
  %175 = sext i32 %174 to i64
  %176 = getelementptr inbounds [100 x double], [100 x double]* %7, i64 0, i64 %175
  %177 = load double, double* %176, align 8
  %178 = fmul double 2.000000e+00, %177
  %179 = fdiv double %173, %178
  %180 = load i32, i32* %3, align 4
  %181 = sext i32 %180 to i64
  %182 = getelementptr inbounds [100 x double], [100 x double]* %11, i64 0, i64 %181
  store double %179, double* %182, align 8
  %183 = load i32, i32* %3, align 4
  %184 = sext i32 %183 to i64
  %185 = getelementptr inbounds [100 x double], [100 x double]* %10, i64 0, i64 %184
  %186 = load double, double* %185, align 8
  %187 = load i32, i32* %3, align 4
  %188 = sext i32 %187 to i64
  %189 = getelementptr inbounds [100 x double], [100 x double]* %11, i64 0, i64 %188
  %190 = load double, double* %189, align 8
  %191 = call i32 (i8*, ...) @printf(i8* getelementptr inbounds ([19 x i8], [19 x i8]* @.str.3, i64 0, i64 0), double %186, double %190)
  br label %192

192:                                              ; preds = %110, %104
  %193 = load i32, i32* %3, align 4
  %194 = sext i32 %193 to i64
  %195 = getelementptr inbounds [100 x double], [100 x double]* %12, i64 0, i64 %194
  %196 = load double, double* %195, align 8
  %197 = fcmp olt double %196, 0.000000e+00
  br i1 %197, label %198, label %232

198:                                              ; preds = %192
  %199 = load double, double* %6, align 8
  store double %199, double* %4, align 8
  %200 = load i32, i32* %3, align 4
  %201 = sext i32 %200 to i64
  %202 = getelementptr inbounds [100 x double], [100 x double]* %7, i64 0, i64 %201
  %203 = load double, double* %202, align 8
  %204 = fmul double 4.000000e+00, %203
  %205 = load i32, i32* %3, align 4
  %206 = sext i32 %205 to i64
  %207 = getelementptr inbounds [100 x double], [100 x double]* %9, i64 0, i64 %206
  %208 = load double, double* %207, align 8
  %209 = fmul double %204, %208
  %210 = load i32, i32* %3, align 4
  %211 = sext i32 %210 to i64
  %212 = getelementptr inbounds [100 x double], [100 x double]* %8, i64 0, i64 %211
  %213 = load double, double* %212, align 8
  %214 = load i32, i32* %3, align 4
  %215 = sext i32 %214 to i64
  %216 = getelementptr inbounds [100 x double], [100 x double]* %8, i64 0, i64 %215
  %217 = load double, double* %216, align 8
  %218 = fmul double %213, %217
  %219 = fsub double %209, %218
  %220 = call double @sqrt(double %219) #3
  %221 = load i32, i32* %3, align 4
  %222 = sext i32 %221 to i64
  %223 = getelementptr inbounds [100 x double], [100 x double]* %7, i64 0, i64 %222
  %224 = load double, double* %223, align 8
  %225 = fmul double 2.000000e+00, %224
  %226 = fdiv double %220, %225
  store double %226, double* %5, align 8
  %227 = load double, double* %4, align 8
  %228 = load double, double* %5, align 8
  %229 = load double, double* %4, align 8
  %230 = load double, double* %5, align 8
  %231 = call i32 (i8*, ...) @printf(i8* getelementptr inbounds ([33 x i8], [33 x i8]* @.str.4, i64 0, i64 0), double %227, double %228, double %229, double %230)
  br label %232

232:                                              ; preds = %198, %192
  br label %233

233:                                              ; preds = %232
  %234 = load i32, i32* %3, align 4
  %235 = add nsw i32 %234, 1
  store i32 %235, i32* %3, align 4
  br label %33

236:                                              ; preds = %33
  %237 = load i32, i32* %1, align 4
  ret i32 %237
}

declare dso_local i32 @__isoc99_scanf(i8*, ...) #1

declare dso_local i32 @printf(i8*, ...) #1

; Function Attrs: nounwind
declare dso_local double @sqrt(double) #2


!llvm.module.flags = !{!0}
!llvm.ident = !{!1}

!0 = !{i32 1, !"wchar_size", i32 4}
!1 = !{!"clang version 10.0.0-4ubuntu1 "}
