; ModuleID = 'source-C-CXX/26/45.c'
source_filename = "source-C-CXX/26/45.c"
target datalayout = "e-m:e-p270:32:32-p271:32:32-p272:64:64-i64:64-f80:128-n8:16:32:64-S128"
target triple = "x86_64-pc-linux-gnu"

@.str = private unnamed_addr constant [3 x i8] c"%d\00", align 1
@.str.1 = private unnamed_addr constant [10 x i8] c"%lf%lf%lf\00", align 1
@.str.2 = private unnamed_addr constant [13 x i8] c"x1=x2=%.5lf\0A\00", align 1
@.str.3 = private unnamed_addr constant [19 x i8] c"x1=%.5lf;x2=%.5lf\0A\00", align 1
@.str.4 = private unnamed_addr constant [33 x i8] c"x1=%.5lf+%.5lfi;x2=%.5lf-%.5lfi\0A\00", align 1

; Function Attrs: nofree nounwind sspstrong uwtable
define dso_local i32 @main() local_unnamed_addr #0 {
  %1 = alloca i32, align 4
  %2 = alloca [100 x double], align 16
  %3 = alloca [100 x double], align 16
  %4 = alloca [100 x double], align 16
  %5 = bitcast i32* %1 to i8*
  call void @llvm.lifetime.start.p0i8(i64 4, i8* nonnull %5) #4
  %6 = bitcast [100 x double]* %2 to i8*
  call void @llvm.lifetime.start.p0i8(i64 800, i8* nonnull %6) #4
  %7 = bitcast [100 x double]* %3 to i8*
  call void @llvm.lifetime.start.p0i8(i64 800, i8* nonnull %7) #4
  %8 = bitcast [100 x double]* %4 to i8*
  call void @llvm.lifetime.start.p0i8(i64 800, i8* nonnull %8) #4
  %9 = call i32 (i8*, ...) @__isoc99_scanf(i8* getelementptr inbounds ([3 x i8], [3 x i8]* @.str, i64 0, i64 0), i32* nonnull %1)
  %10 = load i32, i32* %1, align 4, !tbaa !5
  %11 = icmp sgt i32 %10, 0
  br i1 %11, label %14, label %92

12:                                               ; preds = %14
  %13 = icmp sgt i32 %21, 0
  br i1 %13, label %24, label %92

14:                                               ; preds = %0, %14
  %15 = phi i64 [ %20, %14 ], [ 0, %0 ]
  %16 = getelementptr inbounds [100 x double], [100 x double]* %2, i64 0, i64 %15
  %17 = getelementptr inbounds [100 x double], [100 x double]* %3, i64 0, i64 %15
  %18 = getelementptr inbounds [100 x double], [100 x double]* %4, i64 0, i64 %15
  %19 = call i32 (i8*, ...) @__isoc99_scanf(i8* getelementptr inbounds ([10 x i8], [10 x i8]* @.str.1, i64 0, i64 0), double* nonnull %16, double* nonnull %17, double* nonnull %18)
  %20 = add nuw nsw i64 %15, 1
  %21 = load i32, i32* %1, align 4, !tbaa !5
  %22 = sext i32 %21 to i64
  %23 = icmp slt i64 %20, %22
  br i1 %23, label %14, label %12, !llvm.loop !9

24:                                               ; preds = %12, %87
  %25 = phi i64 [ %88, %87 ], [ 0, %12 ]
  %26 = getelementptr inbounds [100 x double], [100 x double]* %3, i64 0, i64 %25
  %27 = load double, double* %26, align 8, !tbaa !11
  %28 = fneg double %27
  %29 = getelementptr inbounds [100 x double], [100 x double]* %2, i64 0, i64 %25
  %30 = load double, double* %29, align 8, !tbaa !11
  %31 = fmul double %30, 2.000000e+00
  %32 = fdiv double %28, %31
  %33 = fcmp oeq double %32, 0.000000e+00
  %34 = select i1 %33, double 0.000000e+00, double %32
  %35 = fmul double %27, %27
  %36 = fmul double %30, 4.000000e+00
  %37 = getelementptr inbounds [100 x double], [100 x double]* %4, i64 0, i64 %25
  %38 = load double, double* %37, align 8, !tbaa !11
  %39 = fmul double %36, %38
  %40 = fsub double %35, %39
  %41 = fcmp oeq double %40, 0.000000e+00
  br i1 %41, label %42, label %44

42:                                               ; preds = %24
  %43 = call i32 (i8*, ...) @printf(i8* nonnull dereferenceable(1) getelementptr inbounds ([13 x i8], [13 x i8]* @.str.2, i64 0, i64 0), double %32)
  br label %44

44:                                               ; preds = %42, %24
  %45 = fcmp ogt double %40, 0.000000e+00
  br i1 %45, label %46, label %72

46:                                               ; preds = %44
  %47 = load double, double* %26, align 8, !tbaa !11
  %48 = fmul double %47, %47
  %49 = load double, double* %29, align 8, !tbaa !11
  %50 = fmul double %49, 4.000000e+00
  %51 = load double, double* %37, align 8, !tbaa !11
  %52 = fmul double %50, %51
  %53 = fsub double %48, %52
  %54 = call double @sqrt(double %53) #4
  %55 = fsub double %54, %47
  %56 = load double, double* %29, align 8, !tbaa !11
  %57 = fmul double %56, 2.000000e+00
  %58 = fdiv double %55, %57
  %59 = load double, double* %26, align 8, !tbaa !11
  %60 = fneg double %59
  %61 = fmul double %59, %59
  %62 = fmul double %56, 4.000000e+00
  %63 = load double, double* %37, align 8, !tbaa !11
  %64 = fmul double %62, %63
  %65 = fsub double %61, %64
  %66 = call double @sqrt(double %65) #4
  %67 = fsub double %60, %66
  %68 = load double, double* %29, align 8, !tbaa !11
  %69 = fmul double %68, 2.000000e+00
  %70 = fdiv double %67, %69
  %71 = call i32 (i8*, ...) @printf(i8* nonnull dereferenceable(1) getelementptr inbounds ([19 x i8], [19 x i8]* @.str.3, i64 0, i64 0), double %58, double %70)
  br label %72

72:                                               ; preds = %46, %44
  %73 = fcmp olt double %40, 0.000000e+00
  br i1 %73, label %74, label %87

74:                                               ; preds = %72
  %75 = load double, double* %29, align 8, !tbaa !11
  %76 = fmul double %75, 4.000000e+00
  %77 = load double, double* %37, align 8, !tbaa !11
  %78 = fmul double %76, %77
  %79 = load double, double* %26, align 8, !tbaa !11
  %80 = fmul double %79, %79
  %81 = fsub double %78, %80
  %82 = call double @sqrt(double %81) #4
  %83 = load double, double* %29, align 8, !tbaa !11
  %84 = fmul double %83, 2.000000e+00
  %85 = fdiv double %82, %84
  %86 = call i32 (i8*, ...) @printf(i8* nonnull dereferenceable(1) getelementptr inbounds ([33 x i8], [33 x i8]* @.str.4, i64 0, i64 0), double %34, double %85, double %34, double %85)
  br label %87

87:                                               ; preds = %72, %74
  %88 = add nuw nsw i64 %25, 1
  %89 = load i32, i32* %1, align 4, !tbaa !5
  %90 = sext i32 %89 to i64
  %91 = icmp slt i64 %88, %90
  br i1 %91, label %24, label %92, !llvm.loop !13

92:                                               ; preds = %87, %0, %12
  call void @llvm.lifetime.end.p0i8(i64 800, i8* nonnull %8) #4
  call void @llvm.lifetime.end.p0i8(i64 800, i8* nonnull %7) #4
  call void @llvm.lifetime.end.p0i8(i64 800, i8* nonnull %6) #4
  call void @llvm.lifetime.end.p0i8(i64 4, i8* nonnull %5) #4
  ret i32 0
}

; Function Attrs: argmemonly mustprogress nofree nosync nounwind willreturn
declare void @llvm.lifetime.start.p0i8(i64 immarg, i8* nocapture) #1

; Function Attrs: nofree nounwind
declare noundef i32 @__isoc99_scanf(i8* nocapture noundef readonly, ...) local_unnamed_addr #2

; Function Attrs: nofree nounwind
declare noundef i32 @printf(i8* nocapture noundef readonly, ...) local_unnamed_addr #2

; Function Attrs: mustprogress nofree nounwind willreturn
declare double @sqrt(double) local_unnamed_addr #3

; Function Attrs: argmemonly mustprogress nofree nosync nounwind willreturn
declare void @llvm.lifetime.end.p0i8(i64 immarg, i8* nocapture) #1


!llvm.module.flags = !{!0, !1, !2, !3}
!llvm.ident = !{!4}

!0 = !{i32 1, !"wchar_size", i32 4}
!1 = !{i32 7, !"PIC Level", i32 2}
!2 = !{i32 7, !"PIE Level", i32 2}
!3 = !{i32 7, !"uwtable", i32 1}
!4 = !{!"clang version 13.0.0"}
!5 = !{!6, !6, i64 0}
!6 = !{!"int", !7, i64 0}
!7 = !{!"omnipotent char", !8, i64 0}
!8 = !{!"Simple C/C++ TBAA"}
!9 = distinct !{!9, !10}
!10 = !{!"llvm.loop.mustprogress"}
!11 = !{!12, !12, i64 0}
!12 = !{!"double", !7, i64 0}
!13 = distinct !{!13, !10}
